target datalayout = "e-m:e-p270:32:32-p271:32:32-p272:64:64-i64:64-i128:128-f80:128-n8:16:32:64-S128"
target triple = "x86_64-pc-linux-gnu"

%struct.PyWideStringList = type { i64, ptr }
%struct.PyConfig = type { i32, i32, i32, i32, i32, i32, i64, i32, i32, i32, i32, i32, i32, i32, ptr, i32, ptr, ptr, ptr, i32, %struct.PyWideStringList, %struct.PyWideStringList, %struct.PyWideStringList, %struct.PyWideStringList, i32, i32, i32, i32, i32, i32, i32, i32, i32, i32, i32, i32, i32, ptr, ptr, ptr, i32, i32, i32, i32, i32, ptr, ptr, ptr, ptr, i32, %struct.PyWideStringList, ptr, ptr, ptr, ptr, ptr, ptr, ptr, i32, ptr, ptr, ptr, ptr, i32, i32, i32 }

@.str.147 = private unnamed_addr constant [8 x i8] c"<stdin>\00", align 1
@.str.148 = private unnamed_addr constant [4 x i8] c"???\00", align 1

; Function Attrs: nounwind uwtable
define dso_local i32 @Py_FdIsInteractive(ptr noundef %0, ptr noundef %1) #1 {
  %3 = alloca i32, align 4
  %4 = alloca ptr, align 8
  %5 = alloca ptr, align 8
  store ptr %0, ptr %4, align 8, !tbaa !189
  store ptr %1, ptr %5, align 8, !tbaa !180
  %6 = load ptr, ptr %4, align 8, !tbaa !189
  %7 = call i32 @fileno(ptr noundef %6) #14
  %8 = call i32 @isatty(i32 noundef %7) #14
  %9 = icmp ne i32 %8, 0
  br i1 %9, label %10, label %11

10:                                               ; preds = %2
  store i32 1, ptr %3, align 4
  br label %31

11:                                               ; preds = %2
  %12 = call ptr @_Py_GetConfig()
  %13 = getelementptr inbounds nuw %struct.PyConfig, ptr %12, i32 0, i32 28
  %14 = load i32, ptr %13, align 8, !tbaa !253
  %15 = icmp ne i32 %14, 0
  br i1 %15, label %17, label %16

16:                                               ; preds = %11
  store i32 0, ptr %3, align 4
  br label %31

17:                                               ; preds = %11
  %18 = load ptr, ptr %5, align 8, !tbaa !180
  %19 = icmp eq ptr %18, null
  br i1 %19, label %28, label %20

20:                                               ; preds = %17
  %21 = load ptr, ptr %5, align 8, !tbaa !180
  %22 = call i32 @strcmp(ptr noundef %21, ptr noundef @.str.147) #15
  %23 = icmp eq i32 %22, 0
  br i1 %23, label %28, label %24

24:                                               ; preds = %20
  %25 = load ptr, ptr %5, align 8, !tbaa !180
  %26 = call i32 @strcmp(ptr noundef %25, ptr noundef @.str.148) #15
  %27 = icmp eq i32 %26, 0
  br label %28

28:                                               ; preds = %24, %20, %17
  %29 = phi i1 [ true, %20 ], [ true, %17 ], [ %27, %24 ]
  %30 = zext i1 %29 to i32
  store i32 %30, ptr %3, align 4
  br label %31

31:                                               ; preds = %28, %16, %10
  %32 = load i32, ptr %3, align 4
  ret i32 %32
}